; ModuleID = '27/1373.c'
source_filename = "27/1373.c"
target datalayout = "e-m:e-p270:32:32-p271:32:32-p272:64:64-i64:64-f80:128-n8:16:32:64-S128"
target triple = "x86_64-pc-linux-gnu"

@.str = private unnamed_addr constant [3 x i8] c"%d\00", align 1
@.str.1 = private unnamed_addr constant [10 x i8] c"%lf%lf%lf\00", align 1
@.str.2 = private unnamed_addr constant [33 x i8] c"x1=%.5lf+%.5lfi;x2=%.5lf-%.5lfi\0A\00", align 1
@.str.3 = private unnamed_addr constant [19 x i8] c"x1=%.5lf;x2=%.5lf\0A\00", align 1
@.str.4 = private unnamed_addr constant [13 x i8] c"x1=x2=%.5lf\0A\00", align 1

; Function Attrs: noinline nounwind uwtable
define dso_local i32 @main() #0 {
  %1 = alloca i32, align 4
  %2 = alloca i32, align 4
  %3 = alloca i32, align 4
  %4 = alloca double, align 8
  %5 = alloca double, align 8
  %6 = alloca double, align 8
  %7 = alloca double, align 8
  %8 = alloca double, align 8
  %9 = alloca double, align 8
  %10 = alloca double, align 8
  %11 = alloca double, align 8
  store i32 0, i32* %1, align 4
  %12 = call i32 (i8*, ...) @__isoc99_scanf(i8* getelementptr inbounds ([3 x i8], [3 x i8]* @.str, i64 0, i64 0), i32* %2)
  store i32 0, i32* %3, align 4
  br label %13

13:                                               ; preds = %96, %0
  %14 = load i32, i32* %3, align 4
  %15 = load i32, i32* %2, align 4
  %16 = icmp slt i32 %14, %15
  br i1 %16, label %17, label %99

17:                                               ; preds = %13
  %18 = call i32 (i8*, ...) @__isoc99_scanf(i8* getelementptr inbounds ([10 x i8], [10 x i8]* @.str.1, i64 0, i64 0), double* %4, double* %5, double* %6)
  %19 = load double, double* %5, align 8
  %20 = load double, double* %5, align 8
  %21 = fmul double %19, %20
  %22 = load double, double* %4, align 8
  %23 = fmul double 4.000000e+00, %22
  %24 = load double, double* %6, align 8
  %25 = fmul double %23, %24
  %26 = fsub double %21, %25
  store double %26, double* %7, align 8
  %27 = load double, double* %7, align 8
  %28 = fcmp olt double %27, 0.000000e+00
  br i1 %28, label %29, label %52

29:                                               ; preds = %17
  %30 = load double, double* %5, align 8
  %31 = fneg double %30
  %32 = load double, double* %4, align 8
  %33 = fmul double 2.000000e+00, %32
  %34 = fdiv double %31, %33
  store double %34, double* %10, align 8
  %35 = load double, double* %4, align 8
  %36 = fmul double 4.000000e+00, %35
  %37 = load double, double* %6, align 8
  %38 = fmul double %36, %37
  %39 = load double, double* %5, align 8
  %40 = load double, double* %5, align 8
  %41 = fmul double %39, %40
  %42 = fsub double %38, %41
  %43 = call double @sqrt(double %42) #3
  %44 = load double, double* %4, align 8
  %45 = fmul double 2.000000e+00, %44
  %46 = fdiv double %43, %45
  store double %46, double* %11, align 8
  %47 = load double, double* %10, align 8
  %48 = load double, double* %11, align 8
  %49 = load double, double* %10, align 8
  %50 = load double, double* %11, align 8
  %51 = call i32 (i8*, ...) @printf(i8* getelementptr inbounds ([33 x i8], [33 x i8]* @.str.2, i64 0, i64 0), double %47, double %48, double %49, double %50)
  br label %95

52:                                               ; preds = %17
  %53 = load double, double* %5, align 8
  %54 = fneg double %53
  %55 = load double, double* %5, align 8
  %56 = load double, double* %5, align 8
  %57 = fmul double %55, %56
  %58 = load double, double* %4, align 8
  %59 = fmul double 4.000000e+00, %58
  %60 = load double, double* %6, align 8
  %61 = fmul double %59, %60
  %62 = fsub double %57, %61
  %63 = call double @sqrt(double %62) #3
  %64 = fadd double %54, %63
  %65 = load double, double* %4, align 8
  %66 = fmul double 2.000000e+00, %65
  %67 = fdiv double %64, %66
  store double %67, double* %8, align 8
  %68 = load double, double* %5, align 8
  %69 = fneg double %68
  %70 = load double, double* %5, align 8
  %71 = load double, double* %5, align 8
  %72 = fmul double %70, %71
  %73 = load double, double* %4, align 8
  %74 = fmul double 4.000000e+00, %73
  %75 = load double, double* %6, align 8
  %76 = fmul double %74, %75
  %77 = fsub double %72, %76
  %78 = call double @sqrt(double %77) #3
  %79 = fsub double %69, %78
  %80 = load double, double* %4, align 8
  %81 = fmul double 2.000000e+00, %80
  %82 = fdiv double %79, %81
  store double %82, double* %9, align 8
  %83 = load double, double* %8, align 8
  %84 = load double, double* %9, align 8
  %85 = fcmp une double %83, %84
  br i1 %85, label %86, label %90

86:                                               ; preds = %52
  %87 = load double, double* %8, align 8
  %88 = load double, double* %9, align 8
  %89 = call i32 (i8*, ...) @printf(i8* getelementptr inbounds ([19 x i8], [19 x i8]* @.str.3, i64 0, i64 0), double %87, double %88)
  br label %94

90:                                               ; preds = %52
  %91 = load double, double* %8, align 8
  %92 = load double, double* %9, align 8
  %93 = call i32 (i8*, ...) @printf(i8* getelementptr inbounds ([13 x i8], [13 x i8]* @.str.4, i64 0, i64 0), double %91, double %92)
  br label %94

94:                                               ; preds = %90, %86
  br label %95

95:                                               ; preds = %94, %29
  br label %96

96:                                               ; preds = %95
  %97 = load i32, i32* %3, align 4
  %98 = add nsw i32 %97, 1
  store i32 %98, i32* %3, align 4
  br label %13

99:                                               ; preds = %13
  ret i32 0
}

declare dso_local i32 @__isoc99_scanf(i8*, ...) #1

; Function Attrs: nounwind
declare dso_local double @sqrt(double) #2

declare dso_local i32 @printf(i8*, ...) #1


!llvm.module.flags = !{!0}
!llvm.ident = !{!1}

!0 = !{i32 1, !"wchar_size", i32 4}
!1 = !{!"clang version 10.0.0-4ubuntu1 "}
