; ModuleID = 'source-C-CXX/26/1373.c'
source_filename = "source-C-CXX/26/1373.c"
target datalayout = "e-m:e-p270:32:32-p271:32:32-p272:64:64-i64:64-f80:128-n8:16:32:64-S128"
target triple = "x86_64-pc-linux-gnu"

@.str = private unnamed_addr constant [3 x i8] c"%d\00", align 1
@.str.1 = private unnamed_addr constant [10 x i8] c"%lf%lf%lf\00", align 1
@.str.2 = private unnamed_addr constant [33 x i8] c"x1=%.5lf+%.5lfi;x2=%.5lf-%.5lfi\0A\00", align 1
@.str.3 = private unnamed_addr constant [19 x i8] c"x1=%.5lf;x2=%.5lf\0A\00", align 1
@.str.4 = private unnamed_addr constant [13 x i8] c"x1=x2=%.5lf\0A\00", align 1

; Function Attrs: nofree nounwind sspstrong uwtable
define dso_local i32 @main() local_unnamed_addr #0 {
  %1 = alloca i32, align 4
  %2 = alloca double, align 8
  %3 = alloca double, align 8
  %4 = alloca double, align 8
  %5 = bitcast i32* %1 to i8*
  call void @llvm.lifetime.start.p0i8(i64 4, i8* nonnull %5) #4
  %6 = call i32 (i8*, ...) @__isoc99_scanf(i8* getelementptr inbounds ([3 x i8], [3 x i8]* @.str, i64 0, i64 0), i32* nonnull %1)
  %7 = bitcast double* %2 to i8*
  %8 = bitcast double* %3 to i8*
  %9 = bitcast double* %4 to i8*
  %10 = load i32, i32* %1, align 4, !tbaa !5
  %11 = icmp sgt i32 %10, 0
  br i1 %11, label %12, label %65

12:                                               ; preds = %0, %61
  %13 = phi i32 [ %62, %61 ], [ 0, %0 ]
  call void @llvm.lifetime.start.p0i8(i64 8, i8* nonnull %7) #4
  call void @llvm.lifetime.start.p0i8(i64 8, i8* nonnull %8) #4
  call void @llvm.lifetime.start.p0i8(i64 8, i8* nonnull %9) #4
  %14 = call i32 (i8*, ...) @__isoc99_scanf(i8* getelementptr inbounds ([10 x i8], [10 x i8]* @.str.1, i64 0, i64 0), double* nonnull %2, double* nonnull %3, double* nonnull %4)
  %15 = load double, double* %3, align 8, !tbaa !9
  %16 = fmul double %15, %15
  %17 = load double, double* %2, align 8, !tbaa !9
  %18 = fmul double %17, 4.000000e+00
  %19 = load double, double* %4, align 8, !tbaa !9
  %20 = fmul double %18, %19
  %21 = fsub double %16, %20
  %22 = fcmp olt double %21, 0.000000e+00
  br i1 %22, label %23, label %33

23:                                               ; preds = %12
  %24 = fneg double %15
  %25 = fmul double %17, 2.000000e+00
  %26 = fdiv double %24, %25
  %27 = fsub double %20, %16
  %28 = call double @sqrt(double %27) #4
  %29 = load double, double* %2, align 8, !tbaa !9
  %30 = fmul double %29, 2.000000e+00
  %31 = fdiv double %28, %30
  %32 = call i32 (i8*, ...) @printf(i8* nonnull dereferenceable(1) getelementptr inbounds ([33 x i8], [33 x i8]* @.str.2, i64 0, i64 0), double %26, double %31, double %26, double %31)
  br label %61

33:                                               ; preds = %12
  %34 = call double @sqrt(double %21) #4
  %35 = load double, double* %2, align 8, !tbaa !9
  %36 = load double, double* %3, align 8, !tbaa !9
  %37 = fneg double %36
  %38 = fmul double %36, %36
  %39 = fmul double %35, 4.000000e+00
  %40 = load double, double* %4, align 8, !tbaa !9
  %41 = fmul double %39, %40
  %42 = fsub double %38, %41
  %43 = call double @sqrt(double %42) #4
  %44 = insertelement <2 x double> poison, double %34, i32 0
  %45 = insertelement <2 x double> %44, double %37, i32 1
  %46 = insertelement <2 x double> poison, double %15, i32 0
  %47 = insertelement <2 x double> %46, double %43, i32 1
  %48 = fsub <2 x double> %45, %47
  %49 = load double, double* %2, align 8, !tbaa !9
  %50 = insertelement <2 x double> poison, double %35, i32 0
  %51 = insertelement <2 x double> %50, double %49, i32 1
  %52 = fmul <2 x double> %51, <double 2.000000e+00, double 2.000000e+00>
  %53 = fdiv <2 x double> %48, %52
  %54 = extractelement <2 x double> %53, i32 0
  %55 = extractelement <2 x double> %53, i32 1
  %56 = fcmp une double %54, %55
  br i1 %56, label %57, label %59

57:                                               ; preds = %33
  %58 = call i32 (i8*, ...) @printf(i8* nonnull dereferenceable(1) getelementptr inbounds ([19 x i8], [19 x i8]* @.str.3, i64 0, i64 0), double %54, double %55)
  br label %61

59:                                               ; preds = %33
  %60 = call i32 (i8*, ...) @printf(i8* nonnull dereferenceable(1) getelementptr inbounds ([13 x i8], [13 x i8]* @.str.4, i64 0, i64 0), double %54, double %55)
  br label %61

61:                                               ; preds = %57, %59, %23
  call void @llvm.lifetime.end.p0i8(i64 8, i8* nonnull %9) #4
  call void @llvm.lifetime.end.p0i8(i64 8, i8* nonnull %8) #4
  call void @llvm.lifetime.end.p0i8(i64 8, i8* nonnull %7) #4
  %62 = add nuw nsw i32 %13, 1
  %63 = load i32, i32* %1, align 4, !tbaa !5
  %64 = icmp slt i32 %62, %63
  br i1 %64, label %12, label %65, !llvm.loop !11

65:                                               ; preds = %61, %0
  call void @llvm.lifetime.end.p0i8(i64 4, i8* nonnull %5) #4
  ret i32 0
}

; Function Attrs: argmemonly mustprogress nofree nosync nounwind willreturn
declare void @llvm.lifetime.start.p0i8(i64 immarg, i8* nocapture) #1

; Function Attrs: nofree nounwind
declare noundef i32 @__isoc99_scanf(i8* nocapture noundef readonly, ...) local_unnamed_addr #2

; Function Attrs: mustprogress nofree nounwind willreturn
declare double @sqrt(double) local_unnamed_addr #3

; Function Attrs: nofree nounwind
declare noundef i32 @printf(i8* nocapture noundef readonly, ...) local_unnamed_addr #2

; Function Attrs: argmemonly mustprogress nofree nosync nounwind willreturn
declare void @llvm.lifetime.end.p0i8(i64 immarg, i8* nocapture) #1


!llvm.module.flags = !{!0, !1, !2, !3}
!llvm.ident = !{!4}

!0 = !{i32 1, !"wchar_size", i32 4}
!1 = !{i32 7, !"PIC Level", i32 2}
!2 = !{i32 7, !"PIE Level", i32 2}
!3 = !{i32 7, !"uwtable", i32 1}
!4 = !{!"clang version 13.0.0"}
!5 = !{!6, !6, i64 0}
!6 = !{!"int", !7, i64 0}
!7 = !{!"omnipotent char", !8, i64 0}
!8 = !{!"Simple C/C++ TBAA"}
!9 = !{!10, !10, i64 0}
!10 = !{!"double", !7, i64 0}
!11 = distinct !{!11, !12}
!12 = !{!"llvm.loop.mustprogress"}
